target datalayout = "e-m:e-p270:32:32-p271:32:32-p272:64:64-i64:64-i128:128-f80:128-n8:16:32:64-S128"
target triple = "x86_64-pc-linux-gnu"

%struct.AVFilterContext = type { ptr, ptr, ptr, ptr, ptr, i32, ptr, ptr, i32, ptr, ptr, i32, i32, ptr, ptr, ptr, ptr, i32, ptr, i32, i32 }
%struct.AudioSurroundContext = type { ptr, %struct.AVChannelLayout, %struct.AVChannelLayout, float, float, [9 x float], [9 x float], i32, float, float, float, i32, i32, float, float, float, float, [9 x float], [9 x float], ptr, ptr, i32, i32, i32, i32, float, float, i32, i32, ptr, ptr, ptr, ptr, ptr, ptr, ptr, ptr, ptr, ptr, ptr, ptr, ptr, ptr, ptr, ptr, ptr, ptr, ptr, i32, i32, ptr, ptr, ptr, ptr, ptr, ptr, ptr, ptr, ptr }
%struct.AVChannelLayout = type { i32, i32, %union.anon.1, ptr }
%union.anon.1 = type { i64 }
%struct.AVFilterFormatsConfig = type { ptr, ptr, ptr, ptr, ptr }

@query_formats.formats = internal constant [2 x i32] [i32 8, i32 -1], align 4

; Function Attrs: nounwind uwtable
define internal i32 @query_formats(ptr noundef %0, ptr noundef %1, ptr noundef %2) #1 {
  %4 = alloca i32, align 4
  %5 = alloca ptr, align 8
  %6 = alloca ptr, align 8
  %7 = alloca ptr, align 8
  %8 = alloca ptr, align 8
  %9 = alloca ptr, align 8
  %10 = alloca i32, align 4
  %11 = alloca i32, align 4
  store ptr %0, ptr %5, align 8, !tbaa !4
  store ptr %1, ptr %6, align 8, !tbaa !62
  store ptr %2, ptr %7, align 8, !tbaa !62
  call void @llvm.lifetime.start.p0(i64 8, ptr %8) #12
  %12 = load ptr, ptr %5, align 8, !tbaa !4
  %13 = getelementptr inbounds nuw %struct.AVFilterContext, ptr %12, i32 0, i32 9
  %14 = load ptr, ptr %13, align 8, !tbaa !9
  store ptr %14, ptr %8, align 8, !tbaa !22
  call void @llvm.lifetime.start.p0(i64 8, ptr %9) #12
  store ptr null, ptr %9, align 8, !tbaa !64
  call void @llvm.lifetime.start.p0(i64 4, ptr %10) #12
  %15 = load ptr, ptr %5, align 8, !tbaa !4
  %16 = load ptr, ptr %6, align 8, !tbaa !62
  %17 = load ptr, ptr %7, align 8, !tbaa !62
  %18 = call i32 @ff_set_common_formats_from_list2(ptr noundef %15, ptr noundef %16, ptr noundef %17, ptr noundef @query_formats.formats)
  store i32 %18, ptr %10, align 4, !tbaa !47
  %19 = load i32, ptr %10, align 4, !tbaa !47
  %20 = icmp ne i32 %19, 0
  br i1 %20, label %21, label %23

21:                                               ; preds = %3
  %22 = load i32, ptr %10, align 4, !tbaa !47
  store i32 %22, ptr %4, align 4
  store i32 1, ptr %11, align 4
  br label %62

23:                                               ; preds = %3
  store ptr null, ptr %9, align 8, !tbaa !64
  %24 = load ptr, ptr %8, align 8, !tbaa !22
  %25 = getelementptr inbounds nuw %struct.AudioSurroundContext, ptr %24, i32 0, i32 1
  %26 = call i32 @ff_add_channel_layout(ptr noundef %9, ptr noundef %25)
  store i32 %26, ptr %10, align 4, !tbaa !47
  %27 = load i32, ptr %10, align 4, !tbaa !47
  %28 = icmp ne i32 %27, 0
  br i1 %28, label %29, label %31

29:                                               ; preds = %23
  %30 = load i32, ptr %10, align 4, !tbaa !47
  store i32 %30, ptr %4, align 4
  store i32 1, ptr %11, align 4
  br label %62

31:                                               ; preds = %23
  %32 = load ptr, ptr %9, align 8, !tbaa !64
  %33 = load ptr, ptr %7, align 8, !tbaa !62
  %34 = getelementptr inbounds ptr, ptr %33, i64 0
  %35 = load ptr, ptr %34, align 8, !tbaa !66
  %36 = getelementptr inbounds nuw %struct.AVFilterFormatsConfig, ptr %35, i32 0, i32 2
  %37 = call i32 @ff_channel_layouts_ref(ptr noundef %32, ptr noundef %36)
  store i32 %37, ptr %10, align 4, !tbaa !47
  %38 = load i32, ptr %10, align 4, !tbaa !47
  %39 = icmp ne i32 %38, 0
  br i1 %39, label %40, label %42

40:                                               ; preds = %31
  %41 = load i32, ptr %10, align 4, !tbaa !47
  store i32 %41, ptr %4, align 4
  store i32 1, ptr %11, align 4
  br label %62

42:                                               ; preds = %31
  store ptr null, ptr %9, align 8, !tbaa !64
  %43 = load ptr, ptr %8, align 8, !tbaa !22
  %44 = getelementptr inbounds nuw %struct.AudioSurroundContext, ptr %43, i32 0, i32 2
  %45 = call i32 @ff_add_channel_layout(ptr noundef %9, ptr noundef %44)
  store i32 %45, ptr %10, align 4, !tbaa !47
  %46 = load i32, ptr %10, align 4, !tbaa !47
  %47 = icmp ne i32 %46, 0
  br i1 %47, label %48, label %50

48:                                               ; preds = %42
  %49 = load i32, ptr %10, align 4, !tbaa !47
  store i32 %49, ptr %4, align 4
  store i32 1, ptr %11, align 4
  br label %62

50:                                               ; preds = %42
  %51 = load ptr, ptr %9, align 8, !tbaa !64
  %52 = load ptr, ptr %6, align 8, !tbaa !62
  %53 = getelementptr inbounds ptr, ptr %52, i64 0
  %54 = load ptr, ptr %53, align 8, !tbaa !66
  %55 = getelementptr inbounds nuw %struct.AVFilterFormatsConfig, ptr %54, i32 0, i32 2
  %56 = call i32 @ff_channel_layouts_ref(ptr noundef %51, ptr noundef %55)
  store i32 %56, ptr %10, align 4, !tbaa !47
  %57 = load i32, ptr %10, align 4, !tbaa !47
  %58 = icmp ne i32 %57, 0
  br i1 %58, label %59, label %61

59:                                               ; preds = %50
  %60 = load i32, ptr %10, align 4, !tbaa !47
  store i32 %60, ptr %4, align 4
  store i32 1, ptr %11, align 4
  br label %62

61:                                               ; preds = %50
  store i32 0, ptr %4, align 4
  store i32 1, ptr %11, align 4
  br label %62

62:                                               ; preds = %61, %59, %48, %40, %29, %21
  call void @llvm.lifetime.end.p0(i64 4, ptr %10) #12
  call void @llvm.lifetime.end.p0(i64 8, ptr %9) #12
  call void @llvm.lifetime.end.p0(i64 8, ptr %8) #12
  %63 = load i32, ptr %4, align 4
  ret i32 %63
}