; Function Attrs: nounwind uwtable
define internal i32 @query_formats(ptr noundef %0, ptr noundef %1, ptr noundef %2) #1 {
  %4 = alloca ptr, align 8
  %5 = getelementptr inbounds nuw i8, ptr %0, i64 72
  %6 = load ptr, ptr %5, align 8, !tbaa !4
  call void @llvm.lifetime.start.p0(i64 8, ptr nonnull %4) #14
  %7 = tail call i32 @ff_set_common_formats_from_list2(ptr noundef %0, ptr noundef %1, ptr noundef %2, ptr noundef nonnull @query_formats.formats) #14
  %.not = icmp eq i32 %7, 0
  br i1 %.not, label %8, label %24

8:                                                ; preds = %3
  store ptr null, ptr %4, align 8, !tbaa !79
  %9 = getelementptr inbounds nuw i8, ptr %6, i64 8
  %10 = call i32 @ff_add_channel_layout(ptr noundef nonnull %4, ptr noundef nonnull %9) #14
  %.not23 = icmp eq i32 %10, 0
  br i1 %.not23, label %11, label %24

11:                                               ; preds = %8
  %12 = load ptr, ptr %4, align 8, !tbaa !79
  %13 = load ptr, ptr %2, align 8, !tbaa !81
  %14 = getelementptr inbounds nuw i8, ptr %13, i64 16
  %15 = call i32 @ff_channel_layouts_ref(ptr noundef %12, ptr noundef nonnull %14) #14
  %.not24 = icmp eq i32 %15, 0
  br i1 %.not24, label %16, label %24

16:                                               ; preds = %11
  store ptr null, ptr %4, align 8, !tbaa !79
  %17 = getelementptr inbounds nuw i8, ptr %6, i64 32
  %18 = call i32 @ff_add_channel_layout(ptr noundef nonnull %4, ptr noundef nonnull %17) #14
  %.not25 = icmp eq i32 %18, 0
  br i1 %.not25, label %19, label %24

19:                                               ; preds = %16
  %20 = load ptr, ptr %4, align 8, !tbaa !79
  %21 = load ptr, ptr %1, align 8, !tbaa !81
  %22 = getelementptr inbounds nuw i8, ptr %21, i64 16
  %23 = call i32 @ff_channel_layouts_ref(ptr noundef %20, ptr noundef nonnull %22) #14
  br label %24

24:                                               ; preds = %19, %16, %11, %8, %3
  %.0 = phi i32 [ %7, %3 ], [ %10, %8 ], [ %15, %11 ], [ %18, %16 ], [ %23, %19 ]
  call void @llvm.lifetime.end.p0(i64 8, ptr nonnull %4) #14
  ret i32 %.0
}